Certificate:
    Data:
        Version: 3 (0x2)
        Serial Number: 4096 (0x1000)
        Signature Algorithm: sha256WithRSAEncryption
        Issuer: C=RS, ST=Belgrade, L=Dobanovci, O=Private, OU=Private Root CA, CN=Marko Dojkic Root CA/emailAddress=marko.dojkic@gmail.com
        Validity
            Not Before: Apr  9 18:41:51 2025 GMT
            Not After : Apr  6 18:41:51 2035 GMT
        Subject: C=RS, ST=Belgrade, L=Dobanovci, O=Private, OU=Private Intermediate CA, CN=Marko Dojkic Intermediate CA/emailAddress=marko.dojkic@gmail.com
        Subject Public Key Info:
            Public Key Algorithm: rsaEncryption
                Public-Key: (8192 bit)
                Modulus:
                    00:db:78:62:7f:75:85:4c:9b:a6:db:7f:38:bc:39:
                    f1:07:59:fa:a8:85:d9:c4:18:de:44:07:e2:08:bd:
                    a0:60:9c:f0:ac:03:88:13:90:57:07:c2:80:93:25:
                    b6:cc:dd:86:3f:15:02:15:0a:a5:1d:93:95:fd:bb:
                    cc:84:2b:8c:8b:2d:73:cb:da:2e:7e:d4:bd:65:6e:
                    26:f2:24:9c:66:ad:4d:16:c0:b3:14:ec:51:7c:17:
                    c1:72:8a:48:b5:fa:e3:79:2b:a5:34:aa:1d:69:e5:
                    65:68:53:be:57:e5:2a:9e:2a:5f:6c:89:e3:6e:39:
                    92:5e:05:be:c5:9e:f4:b7:6c:31:be:ea:bc:54:b6:
                    e6:c7:d6:1d:ff:50:8b:c1:bc:a9:86:4f:59:4e:eb:
                    ef:25:88:f3:c0:e3:05:a5:42:a2:36:1d:ae:c9:d0:
                    02:85:e9:79:99:5a:65:af:f3:d9:a1:9a:75:d3:92:
                    fc:84:bd:b2:0d:84:7b:9e:8c:79:35:e7:83:7b:1a:
                    b0:91:29:60:2c:71:91:ce:6d:45:bd:8a:0d:7a:05:
                    a3:d2:ce:ae:5c:01:d0:6b:3e:dc:6e:4f:9d:ca:47:
                    39:78:71:cb:82:7a:f3:b2:69:1c:28:c3:df:e4:9d:
                    d7:9f:e4:e2:78:db:2d:94:86:0a:ca:a8:d6:18:c1:
                    f6:98:c2:f3:da:ea:52:9e:bf:10:26:b6:4f:a0:08:
                    c3:a3:e6:b7:98:4f:f0:b2:4e:10:7a:30:78:02:7e:
                    08:c0:39:4c:29:dd:78:f1:56:1a:81:5b:94:5d:85:
                    ea:9b:91:54:70:c7:65:4e:dc:e7:aa:a2:58:ed:f0:
                    28:08:9b:4d:5c:89:f7:10:02:9e:4a:83:6f:69:9a:
                    0d:a8:f1:dc:4b:ae:b7:9a:aa:c6:cb:86:79:e7:37:
                    a8:e4:33:d3:9e:77:ed:34:7f:02:34:61:d5:d1:78:
                    0b:dd:0c:94:c1:ee:d2:e0:70:56:e8:ea:b4:0a:d1:
                    5b:a9:69:4f:b2:de:de:c2:70:9e:8c:9d:f3:09:1f:
                    15:9f:a6:24:de:f3:44:58:a2:d3:0c:3e:6d:92:72:
                    93:37:d3:d0:86:b1:c6:0d:50:3c:6d:24:8e:7f:80:
                    c8:3d:55:7a:b1:04:ef:a6:00:af:24:af:af:a3:59:
                    db:91:96:06:ae:6b:80:02:ab:be:4f:f5:c4:12:3d:
                    bc:2f:21:bd:06:e2:bd:a7:2b:c4:eb:0c:93:a5:48:
                    7f:1d:e3:47:02:5e:5d:01:9b:f7:74:5a:17:c0:ee:
                    2e:3c:11:84:83:cb:55:ac:60:c5:82:63:28:70:12:
                    05:8d:61:1c:4a:0e:ee:c7:33:a7:fe:f6:ec:73:8b:
                    06:87:a8:85:97:de:94:58:f7:8d:3e:9b:ea:bd:1c:
                    23:a1:b4:c0:53:8f:8a:98:ec:70:a1:41:b3:89:14:
                    35:0d:63:aa:c9:e6:e8:cb:47:57:8d:18:14:d5:96:
                    f3:09:e4:b0:6d:39:b6:ee:2c:21:4f:d9:45:5e:34:
                    76:c9:f5:86:07:54:a0:08:79:6e:04:73:f3:07:73:
                    d6:a2:d4:00:50:f3:d0:61:96:b6:5b:2b:23:65:91:
                    3b:ed:34:5d:00:b8:80:8e:29:7c:2b:84:ba:92:24:
                    51:a9:1c:2b:50:7f:70:7c:0d:d2:45:2c:c5:8d:b0:
                    ab:bb:07:a7:c2:8c:94:dd:b2:5b:d1:0b:7e:f5:1f:
                    6c:7e:ce:bf:fe:44:fd:60:02:ef:ee:aa:cb:58:08:
                    44:1e:f8:6e:10:fc:78:01:2c:a1:23:9c:a4:43:33:
                    9c:c7:7a:fc:b4:5a:c5:88:44:4c:40:23:51:ae:6d:
                    b4:cf:40:6d:37:af:69:36:36:85:df:96:44:bd:c1:
                    9a:75:84:e7:98:de:d9:cb:63:be:8d:65:76:87:14:
                    19:0f:bd:c0:f2:81:9e:7a:82:4d:a1:fe:f9:15:c8:
                    d4:6f:2f:02:61:0a:97:ad:43:bc:96:f9:00:fb:a9:
                    b4:71:24:cb:5e:53:d8:5f:b8:f1:d9:d1:40:1e:79:
                    e2:3d:cd:31:87:40:44:58:5d:2a:40:a8:1a:92:9a:
                    4c:ea:ad:18:92:99:ca:74:33:04:6e:b8:3f:5b:c9:
                    81:40:6d:6e:d7:d4:6d:67:bc:c0:d1:e3:ec:4f:1a:
                    45:5e:62:b0:4f:e8:d8:c8:24:da:02:99:48:4e:01:
                    6e:df:c6:dd:8d:de:08:96:36:78:1e:4e:39:8f:3b:
                    67:18:b8:0e:9e:b7:19:9a:2c:2a:b7:72:e9:55:06:
                    6e:f9:81:88:db:c9:30:15:fa:47:c1:23:13:ce:69:
                    19:3e:44:af:3e:a3:c5:39:27:ff:e9:b7:0f:a5:92:
                    f7:69:ef:c0:be:26:01:ce:9a:03:68:61:8e:33:19:
                    34:d2:69:1d:46:b9:3c:fb:53:be:f5:89:aa:39:7f:
                    56:7e:79:41:0d:44:45:32:39:a3:ee:64:e9:3b:4f:
                    82:f7:f9:cb:68:c8:00:fa:fb:b4:3c:76:cb:24:73:
                    ef:58:61:7b:7e:24:0a:9b:1f:c3:9b:7f:91:5a:e1:
                    83:80:5b:45:b1:0a:24:99:a4:5c:fa:a7:aa:e9:a9:
                    33:b3:bc:2c:0a:27:60:18:bd:2e:9d:50:1e:f4:66:
                    65:7a:3e:55:d3:e9:4b:39:56:d8:b6:8a:d7:f6:de:
                    6d:1c:a3:b3:51:55:8b:f7:f8:25:8f:c7:41:20:f5:
                    95:27:2f:7b:25
                Exponent: 65537 (0x10001)
        X509v3 extensions:
            X509v3 Basic Constraints: critical
                CA:TRUE, pathlen:0
            X509v3 Key Usage: critical
                Digital Signature, Certificate Sign, CRL Sign
            X509v3 Subject Key Identifier: 
                CF:13:F1:A8:3F:8C:C9:2A:61:7E:C2:BE:02:8D:70:1A:8C:0D:92:C5
            X509v3 Authority Key Identifier: 
                keyid:D7:40:71:67:E9:6B:58:3D:DA:F0:30:C7:60:B6:56:F0:3B:57:78:9C
                DirName:/C=RS/ST=Belgrade/L=Dobanovci/O=Private/OU=Private Root CA/CN=Marko Dojkic Root CA/emailAddress=marko.dojkic@gmail.com
                serial:4A:A1:29:35:8B:1A:28:5A:DC:AF:AE:1B:83:F5:DC:6A:36:53:9F:E4
    Signature Algorithm: sha256WithRSAEncryption
    Signature Value:
        03:79:f1:2d:f0:e7:20:69:45:db:09:1b:53:ae:d0:0a:6d:12:
        ad:f9:e4:c7:32:ec:af:11:83:be:b1:5e:53:5f:b3:32:b6:15:
        25:62:f1:c3:16:ea:1c:26:3d:b5:3a:b6:30:10:28:c7:8b:f2:
        f3:1c:82:4a:a9:c4:99:7d:1d:83:4d:90:9c:e7:19:fe:96:fc:
        b8:e5:f5:50:9a:ff:c1:47:78:f0:31:ca:c3:a8:74:15:2d:17:
        ea:61:29:b9:cb:f5:a7:9b:d6:5a:4e:e5:bf:e3:86:be:81:ac:
        0f:83:a8:f4:6e:fe:15:d7:c8:ba:b3:87:51:0c:f9:c8:95:1f:
        ee:22:45:81:02:bd:45:2f:7b:2d:d2:88:d1:41:2c:d2:8c:17:
        5f:ad:0a:fb:11:3c:18:6b:8c:f8:24:e7:92:93:24:7a:96:93:
        e5:dd:b6:5f:d7:4d:7f:d9:b5:3f:74:0a:05:23:4f:52:cf:29:
        a0:df:95:a9:b0:fe:37:ca:f6:3f:7f:04:f8:15:f2:c2:7e:56:
        1e:94:25:53:8d:d2:67:98:12:71:cf:0d:da:f8:8b:ad:04:2a:
        bc:e2:50:2a:9d:5a:2d:6e:5f:8d:23:5d:22:62:89:79:8c:10:
        6d:0a:44:8c:6b:4a:1e:23:fd:6e:b0:f7:ec:59:51:7e:66:54:
        50:69:3d:df
-----BEGIN CERTIFICATE-----
MIIIDDCCBvSgAwIBAgICEAAwDQYJKoZIhvcNAQELBQAwgaYxCzAJBgNVBAYTAlJT
MREwDwYDVQQIDAhCZWxncmFkZTESMBAGA1UEBwwJRG9iYW5vdmNpMRAwDgYDVQQK
DAdQcml2YXRlMRgwFgYDVQQLDA9Qcml2YXRlIFJvb3QgQ0ExHTAbBgNVBAMMFE1h
cmtvIERvamtpYyBSb290IENBMSUwIwYJKoZIhvcNAQkBFhZtYXJrby5kb2praWNA
Z21haWwuY29tMB4XDTI1MDQwOTE4NDE1MVoXDTM1MDQwNjE4NDE1MVowgbYxCzAJ
BgNVBAYTAlJTMREwDwYDVQQIDAhCZWxncmFkZTESMBAGA1UEBwwJRG9iYW5vdmNp
MRAwDgYDVQQKDAdQcml2YXRlMSAwHgYDVQQLDBdQcml2YXRlIEludGVybWVkaWF0
ZSBDQTElMCMGA1UEAwwcTWFya28gRG9qa2ljIEludGVybWVkaWF0ZSBDQTElMCMG
CSqGSIb3DQEJARYWbWFya28uZG9qa2ljQGdtYWlsLmNvbTCCBCIwDQYJKoZIhvcN
AQEBBQADggQPADCCBAoCggQBANt4Yn91hUybptt/OLw58QdZ+qiF2cQY3kQH4gi9
oGCc8KwDiBOQVwfCgJMltszdhj8VAhUKpR2Tlf27zIQrjIstc8vaLn7UvWVuJvIk
nGatTRbAsxTsUXwXwXKKSLX643krpTSqHWnlZWhTvlflKp4qX2yJ4245kl4FvsWe
9LdsMb7qvFS25sfWHf9Qi8G8qYZPWU7r7yWI88DjBaVCojYdrsnQAoXpeZlaZa/z
2aGaddOS/IS9sg2Ee56MeTXng3sasJEpYCxxkc5tRb2KDXoFo9LOrlwB0Gs+3G5P
ncpHOXhxy4J687JpHCjD3+Sd15/k4njbLZSGCsqo1hjB9pjC89rqUp6/ECa2T6AI
w6Pmt5hP8LJOEHoweAJ+CMA5TCndePFWGoFblF2F6puRVHDHZU7c56qiWO3wKAib
TVyJ9xACnkqDb2maDajx3Euut5qqxsuGeec3qOQz05537TR/AjRh1dF4C90MlMHu
0uBwVujqtArRW6lpT7Le3sJwnoyd8wkfFZ+mJN7zRFii0ww+bZJykzfT0Iaxxg1Q
PG0kjn+AyD1VerEE76YArySvr6NZ25GWBq5rgAKrvk/1xBI9vC8hvQbivacrxOsM
k6VIfx3jRwJeXQGb93RaF8DuLjwRhIPLVaxgxYJjKHASBY1hHEoO7sczp/727HOL
BoeohZfelFj3jT6b6r0cI6G0wFOPipjscKFBs4kUNQ1jqsnm6MtHV40YFNWW8wnk
sG05tu4sIU/ZRV40dsn1hgdUoAh5bgRz8wdz1qLUAFDz0GGWtlsrI2WRO+00XQC4
gI4pfCuEupIkUakcK1B/cHwN0kUsxY2wq7sHp8KMlN2yW9ELfvUfbH7Ov/5E/WAC
7+6qy1gIRB74bhD8eAEsoSOcpEMznMd6/LRaxYhETEAjUa5ttM9AbTevaTY2hd+W
RL3BmnWE55je2ctjvo1ldocUGQ+9wPKBnnqCTaH++RXI1G8vAmEKl61DvJb5APup
tHEky15T2F+48dnRQB554j3NMYdARFhdKkCoGpKaTOqtGJKZynQzBG64P1vJgUBt
btfUbWe8wNHj7E8aRV5isE/o2Mgk2gKZSE4Bbt/G3Y3eCJY2eB5OOY87Zxi4Dp63
GZosKrdy6VUGbvmBiNvJMBX6R8EjE85pGT5Erz6jxTkn/+m3D6WS92nvwL4mAc6a
A2hhjjMZNNJpHUa5PPtTvvWJqjl/Vn55QQ1ERTI5o+5k6TtPgvf5y2jIAPr7tDx2
yyRz71hhe34kCpsfw5t/kVrhg4BbRbEKJJmkXPqnqumpM7O8LAonYBi9Lp1QHvRm
ZXo+VdPpSzlW2LaK1/bebRyjs1FVi/f4JY/HQSD1lScveyUCAwEAAaOCATAwggEs
MBIGA1UdEwEB/wQIMAYBAf8CAQAwDgYDVR0PAQH/BAQDAgGGMB0GA1UdDgQWBBTP
E/GoP4zJKmF+wr4CjXAajA2SxTCB5gYDVR0jBIHeMIHbgBTXQHFn6WtYPdrwMMdg
tlbwO1d4nKGBrKSBqTCBpjELMAkGA1UEBhMCUlMxETAPBgNVBAgMCEJlbGdyYWRl
MRIwEAYDVQQHDAlEb2Jhbm92Y2kxEDAOBgNVBAoMB1ByaXZhdGUxGDAWBgNVBAsM
D1ByaXZhdGUgUm9vdCBDQTEdMBsGA1UEAwwUTWFya28gRG9qa2ljIFJvb3QgQ0Ex
JTAjBgkqhkiG9w0BCQEWFm1hcmtvLmRvamtpY0BnbWFpbC5jb22CFEqhKTWLGiha
3K+uG4P13Go2U5/kMA0GCSqGSIb3DQEBCwUAA4IBAQADefEt8OcgaUXbCRtTrtAK
bRKt+eTHMuyvEYO+sV5TX7MythUlYvHDFuocJj21OrYwECjHi/LzHIJKqcSZfR2D
TZCc5xn+lvy45fVQmv/BR3jwMcrDqHQVLRfqYSm5y/Wnm9ZaTuW/44a+gawPg6j0
bv4V18i6s4dRDPnIlR/uIkWBAr1FL3st0ojRQSzSjBdfrQr7ETwYa4z4JOeSkyR6
lpPl3bZf101/2bU/dAoFI09Szymg35WpsP43yvY/fwT4FfLCflYelCVTjdJnmBJx
zw3a+IutBCq84lAqnVotbl+NI10iYol5jBBtCkSMa0oeI/1usPfsWVF+ZlRQaT3f
-----END CERTIFICATE-----
-----BEGIN CERTIFICATE-----
MIIFBTCCA+2gAwIBAgIUSqEpNYsaKFrcr64bg/XcajZTn+QwDQYJKoZIhvcNAQEL
BQAwgaYxCzAJBgNVBAYTAlJTMREwDwYDVQQIDAhCZWxncmFkZTESMBAGA1UEBwwJ
RG9iYW5vdmNpMRAwDgYDVQQKDAdQcml2YXRlMRgwFgYDVQQLDA9Qcml2YXRlIFJv
b3QgQ0ExHTAbBgNVBAMMFE1hcmtvIERvamtpYyBSb290IENBMSUwIwYJKoZIhvcN
AQkBFhZtYXJrby5kb2praWNAZ21haWwuY29tMB4XDTI1MDQwOTE4MjEzMVoXDTM1
MDQwNzE4MjEzMVowgaYxCzAJBgNVBAYTAlJTMREwDwYDVQQIDAhCZWxncmFkZTES
MBAGA1UEBwwJRG9iYW5vdmNpMRAwDgYDVQQKDAdQcml2YXRlMRgwFgYDVQQLDA9Q
cml2YXRlIFJvb3QgQ0ExHTAbBgNVBAMMFE1hcmtvIERvamtpYyBSb290IENBMSUw
IwYJKoZIhvcNAQkBFhZtYXJrby5kb2praWNAZ21haWwuY29tMIIBIjANBgkqhkiG
9w0BAQEFAAOCAQ8AMIIBCgKCAQEAkksdk/CBR4483zbqBKL7M9zDqMOJiaAlOyjo
jX+FXfvFzNGJv/jMXU0v5ZN05G5LS0ssbqxnL4zq8WRh3UEVfpqlhZqPqPUMFm73
fPO4acJR8jp5NSdSfU5Cu1vkWX1o7kMA1yHgm9V1soUbvLmyNcQKaXYXkkmK3TrF
JERQisdiTWJYrmCbTTpK92azuFBinXlEQhNWP3z1hi+RzfVyXVDT5/0PvlOx8HlB
4Ga6o3uP4CoDwU1kKl3fHTeBsxLchsbnPin/3tDvwfB6Ypf20iGmiQTyh5i9zOra
9/C2cY2TN844HQ+nyfhY/u/SaNCgkYKSsfzwNVHSrRXbw4jYnwIDAQABo4IBJzCC
ASMwDAYDVR0TBAUwAwEB/zALBgNVHQ8EBAMCAQYwHQYDVR0OBBYEFNdAcWfpa1g9
2vAwx2C2VvA7V3icMIHmBgNVHSMEgd4wgduAFNdAcWfpa1g92vAwx2C2VvA7V3ic
oYGspIGpMIGmMQswCQYDVQQGEwJSUzERMA8GA1UECAwIQmVsZ3JhZGUxEjAQBgNV
BAcMCURvYmFub3ZjaTEQMA4GA1UECgwHUHJpdmF0ZTEYMBYGA1UECwwPUHJpdmF0
ZSBSb290IENBMR0wGwYDVQQDDBRNYXJrbyBEb2praWMgUm9vdCBDQTElMCMGCSqG
SIb3DQEJARYWbWFya28uZG9qa2ljQGdtYWlsLmNvbYIUSqEpNYsaKFrcr64bg/Xc
ajZTn+QwDQYJKoZIhvcNAQELBQADggEBAAKl6czvhIZQtQcAkSmwbUhj5Q+aYeOZ
YT8DP0A5Jp623nuMvbLI0QdZDxFwywmCQ8+HLI2ShuU94ObtiHXl2bt/JuzYE6Mw
JmJpnXwTlGsS2ANz0kUQ9ApWJCdcngYNdn8vqvfnhVmAKJMiA1Pv/FEk7zI1YOY7
lUuLhb/rKPapETmIvLQHYIBIy9Qyd1VDgRm/3Fs6u9Jf8m0zMXjI6pDUUE1eB79z
IJOcMlxik5VO0+VN2kQuCbuzzdBgeJcMz0WYlSaHgauFQ7vNVwbE2gDdv0m1B1Ld
J40lLvWdJxg1+wE+t3B9TUz0nnQtinWy3EHIq/Tie5Gfsj6MjRgG91U=
-----END CERTIFICATE-----
